target datalayout = "e-m:e-p270:32:32-p271:32:32-p272:64:64-i64:64-i128:128-f80:128-n8:16:32:64-S128"
target triple = "x86_64-unknown-linux-gnu"

%struct.DeviceClass = type { %struct.ObjectClass, [1 x i64], ptr, ptr, ptr, i8, i8, ptr, ptr, ptr, ptr, ptr }
%struct.ObjectClass = type { ptr, ptr, [4 x ptr], [4 x ptr], ptr, ptr }
%struct.TPCI200State = type { %struct.PCIDevice, %struct.IPackBus, %struct.MemoryRegion, %struct.MemoryRegion, %struct.MemoryRegion, %struct.MemoryRegion, %struct.MemoryRegion, %struct.MemoryRegion, [3 x i8], [4 x i8], i16, i8 }
%struct.PCIDevice = type { %struct.DeviceState, i8, i8, ptr, ptr, ptr, ptr, ptr, i32, %struct.PCIReqIDCache, [64 x i8], [7 x %struct.PCIIORegion], %struct.AddressSpace, %struct.MemoryRegion, %struct.MemoryRegion, ptr, ptr, [3 x ptr], i8, i8, i32, i8, i32, ptr, ptr, ptr, ptr, ptr, ptr, %struct.MemoryRegion, %struct.MemoryRegion, %struct.MemoryRegion, ptr, i8, i32, i8, %struct.PCIExpressDevice, ptr, ptr, i32, i8, %struct.MemoryRegion, i32, ptr, ptr, ptr, ptr, ptr, i32 }
%struct.DeviceState = type { %struct.Object, ptr, ptr, i8, i8, i64, ptr, i32, i8, ptr, %struct.NamedGPIOListHead, %struct.NamedClockListHead, %struct.BusStateHead, i32, i32, i32, %struct.ResettableState, ptr, %struct.MemReentrancyGuard }
%struct.Object = type { ptr, ptr, ptr, i32, ptr }
%struct.NamedGPIOListHead = type { ptr }
%struct.NamedClockListHead = type { ptr }
%struct.BusStateHead = type { ptr }
%struct.ResettableState = type { i32, i8, i8 }
%struct.MemReentrancyGuard = type { i8 }
%struct.PCIReqIDCache = type { ptr, i32 }
%struct.PCIIORegion = type { i64, i64, i8, ptr, ptr }
%struct.AddressSpace = type { %struct.rcu_head, ptr, ptr, ptr, i32, i32, ptr, %union.anon, %union.anon.0 }
%struct.rcu_head = type { ptr, ptr }
%union.anon = type { %struct.QTailQLink }
%struct.QTailQLink = type { ptr, ptr }
%union.anon.0 = type { %struct.QTailQLink }
%struct.PCIExpressDevice = type { i8, i8, i8, i16, %struct.PCIEAERLog, i16, i16, i16, %struct.PCIESriovPF, %struct.PCIESriovVF }
%struct.PCIEAERLog = type { i16, i16, ptr }
%struct.PCIESriovPF = type { i16, [7 x i8], ptr, ptr }
%struct.PCIESriovVF = type { ptr, i16 }
%struct.IPackBus = type { %struct.BusState, i8, i8, ptr }
%struct.BusState = type { %struct.Object, ptr, ptr, ptr, i32, i8, i8, i32, %union.BusChildHead, %struct.BusStateEntry, %struct.ResettableState }
%union.BusChildHead = type { %struct.QTailQLink }
%struct.BusStateEntry = type { ptr, ptr }
%struct.MemoryRegion = type { %struct.Object, i8, i8, i8, i8, i8, i8, i8, i8, i8, i8, ptr, ptr, ptr, ptr, ptr, ptr, i32, i128, i64, ptr, i64, i8, i8, i8, i8, i8, ptr, i64, i32, %union.anon.1, %union.anon.2, %union.anon.3, ptr, i32, ptr, ptr, i8 }
%union.anon.1 = type { %struct.QTailQLink }
%union.anon.2 = type { %struct.QTailQLink }
%union.anon.3 = type { %struct.QTailQLink }
%struct.IPackDevice = type { %struct.DeviceState, i32, ptr }
%struct.IPackDeviceClass = type { %struct.DeviceClass, ptr, ptr, ptr, ptr, ptr, ptr, ptr, ptr, ptr, ptr, ptr, ptr }

@.str.14 = private unnamed_addr constant [13 x i8] c"ipack-device\00", align 1
@.str.15 = private unnamed_addr constant [103 x i8] c"/home/dtcxzyw/WorkSpace/Projects/compilers/llvm-opt-benchmark/bench/qemu/qemu/include/hw/ipack/ipack.h\00", align 1
@__func__.IPACK_DEVICE_GET_CLASS = private unnamed_addr constant [23 x i8] c"IPACK_DEVICE_GET_CLASS\00", align 1

; Function Attrs: nounwind sspstrong uwtable
define internal i64 @adjust_value(i1 noundef zeroext %big_endian, ptr noundef %val, i32 noundef %size) #0 {
entry:
  %big_endian.addr = alloca i8, align 1
  %val.addr = alloca ptr, align 8
  %size.addr = alloca i32, align 4
  %frombool = zext i1 %big_endian to i8
  store i8 %frombool, ptr %big_endian.addr, align 1
  store ptr %val, ptr %val.addr, align 8
  store i32 %size, ptr %size.addr, align 4
  %0 = load i8, ptr %big_endian.addr, align 1
  %tobool = trunc i8 %0 to i1
  br i1 %tobool, label %land.lhs.true, label %if.end

land.lhs.true:                                    ; preds = %entry
  %1 = load i32, ptr %size.addr, align 4
  %cmp = icmp eq i32 %1, 2
  br i1 %cmp, label %if.then, label %if.end

if.then:                                          ; preds = %land.lhs.true
  %2 = load ptr, ptr %val.addr, align 8
  %3 = load i64, ptr %2, align 8
  %conv = trunc i64 %3 to i16
  %4 = call i16 @llvm.bswap.i16(i16 %conv)
  %conv1 = zext i16 %4 to i64
  %5 = load ptr, ptr %val.addr, align 8
  store i64 %conv1, ptr %5, align 8
  br label %if.end

if.end:                                           ; preds = %if.then, %land.lhs.true, %entry
  %6 = load ptr, ptr %val.addr, align 8
  %7 = load i64, ptr %6, align 8
  ret i64 %7
}

; Function Attrs: nounwind sspstrong uwtable
define internal void @qemu_irq_lower(ptr noundef %irq) #0 {
entry:
  %irq.addr = alloca ptr, align 8
  store ptr %irq, ptr %irq.addr, align 8
  %0 = load ptr, ptr %irq.addr, align 8
  call void @qemu_set_irq(ptr noundef %0, i32 noundef 0)
  ret void
}

; Function Attrs: nounwind sspstrong uwtable
define internal ptr @IPACK_DEVICE_GET_CLASS(ptr noundef %obj) #0 {
entry:
  %obj.addr = alloca ptr, align 8
  store ptr %obj, ptr %obj.addr, align 8
  %0 = load ptr, ptr %obj.addr, align 8
  %call = call ptr @object_get_class(ptr noundef %0)
  %call1 = call ptr @object_class_dynamic_cast_assert(ptr noundef %call, ptr noundef @.str.14, ptr noundef @.str.15, i32 noundef 34, ptr noundef @__func__.IPACK_DEVICE_GET_CLASS)
  ret ptr %call1
}

; Function Attrs: nounwind sspstrong uwtable
define internal void @adjust_addr(i1 noundef zeroext %big_endian, ptr noundef %addr, i32 noundef %size) #0 {
entry:
  %big_endian.addr = alloca i8, align 1
  %addr.addr = alloca ptr, align 8
  %size.addr = alloca i32, align 4
  %frombool = zext i1 %big_endian to i8
  store i8 %frombool, ptr %big_endian.addr, align 1
  store ptr %addr, ptr %addr.addr, align 8
  store i32 %size, ptr %size.addr, align 4
  %0 = load i8, ptr %big_endian.addr, align 1
  %tobool = trunc i8 %0 to i1
  br i1 %tobool, label %land.lhs.true, label %if.end

land.lhs.true:                                    ; preds = %entry
  %1 = load i32, ptr %size.addr, align 4
  %cmp = icmp eq i32 %1, 1
  br i1 %cmp, label %if.then, label %if.end

if.then:                                          ; preds = %land.lhs.true
  %2 = load ptr, ptr %addr.addr, align 8
  %3 = load i64, ptr %2, align 8
  %xor = xor i64 %3, 1
  store i64 %xor, ptr %2, align 8
  br label %if.end

if.end:                                           ; preds = %if.then, %land.lhs.true, %entry
  ret void
}

; Function Attrs: nounwind sspstrong uwtable
define internal i64 @tpci200_read_las1(ptr noundef %opaque, i64 noundef %addr, i32 noundef %size) #0 {
entry:
  %opaque.addr = alloca ptr, align 8
  %addr.addr = alloca i64, align 8
  %size.addr = alloca i32, align 4
  %s = alloca ptr, align 8
  %ip = alloca ptr, align 8
  %ret = alloca i64, align 8
  %ip_n = alloca i32, align 4
  %space = alloca i32, align 4
  %offset = alloca i8, align 1
  %k = alloca ptr, align 8
  %intno = alloca i32, align 4
  %int_set = alloca i8, align 1
  %int_edge_sensitive = alloca i8, align 1
  store ptr %opaque, ptr %opaque.addr, align 8
  store i64 %addr, ptr %addr.addr, align 8
  store i32 %size, ptr %size.addr, align 4
  %0 = load ptr, ptr %opaque.addr, align 8
  store ptr %0, ptr %s, align 8
  store i64 0, ptr %ret, align 8
  %1 = load ptr, ptr %s, align 8
  %big_endian = getelementptr inbounds %struct.TPCI200State, ptr %1, i32 0, i32 8
  %arrayidx = getelementptr [3 x i8], ptr %big_endian, i64 0, i64 1
  %2 = load i8, ptr %arrayidx, align 1
  %tobool = trunc i8 %2 to i1
  %3 = load i32, ptr %size.addr, align 4
  call void @adjust_addr(i1 noundef zeroext %tobool, ptr noundef %addr.addr, i32 noundef %3)
  %4 = load i64, ptr %addr.addr, align 8
  %shr = lshr i64 %4, 8
  %conv = trunc i64 %shr to i32
  store i32 %conv, ptr %ip_n, align 4
  %5 = load i64, ptr %addr.addr, align 8
  %shr1 = lshr i64 %5, 6
  %and = and i64 %shr1, 3
  %conv2 = trunc i64 %and to i32
  store i32 %conv2, ptr %space, align 4
  %6 = load ptr, ptr %s, align 8
  %bus = getelementptr inbounds %struct.TPCI200State, ptr %6, i32 0, i32 1
  %7 = load i32, ptr %ip_n, align 4
  %call = call ptr @ipack_device_find(ptr noundef %bus, i32 noundef %7)
  store ptr %call, ptr %ip, align 8
  %8 = load ptr, ptr %ip, align 8
  %cmp = icmp eq ptr %8, null
  br i1 %cmp, label %if.then, label %if.else

if.then:                                          ; preds = %entry
  br label %do.body

do.body:                                          ; preds = %if.then
  br label %do.end

do.end:                                           ; preds = %do.body
  br label %if.end56

if.else:                                          ; preds = %entry
  %9 = load ptr, ptr %ip, align 8
  %call4 = call ptr @IPACK_DEVICE_GET_CLASS(ptr noundef %9)
  store ptr %call4, ptr %k, align 8
  %10 = load i32, ptr %space, align 4
  switch i32 %10, label %sw.default [
    i32 2, label %sw.bb
    i32 3, label %sw.bb12
  ]

sw.bb:                                            ; preds = %if.else
  %11 = load i64, ptr %addr.addr, align 8
  %and5 = and i64 %11, 63
  %conv6 = trunc i64 %and5 to i8
  store i8 %conv6, ptr %offset, align 1
  %12 = load ptr, ptr %k, align 8
  %id_read = getelementptr inbounds %struct.IPackDeviceClass, ptr %12, i32 0, i32 5
  %13 = load ptr, ptr %id_read, align 8
  %tobool7 = icmp ne ptr %13, null
  br i1 %tobool7, label %if.then8, label %if.end

if.then8:                                         ; preds = %sw.bb
  %14 = load ptr, ptr %k, align 8
  %id_read9 = getelementptr inbounds %struct.IPackDeviceClass, ptr %14, i32 0, i32 5
  %15 = load ptr, ptr %id_read9, align 8
  %16 = load ptr, ptr %ip, align 8
  %17 = load i8, ptr %offset, align 1
  %call10 = call zeroext i16 %15(ptr noundef %16, i8 noundef zeroext %17)
  %conv11 = zext i16 %call10 to i64
  store i64 %conv11, ptr %ret, align 8
  br label %if.end

if.end:                                           ; preds = %if.then8, %sw.bb
  br label %sw.epilog

sw.bb12:                                          ; preds = %if.else
  %18 = load i64, ptr %addr.addr, align 8
  %and13 = and i64 %18, 63
  %conv14 = trunc i64 %and13 to i8
  store i8 %conv14, ptr %offset, align 1
  %19 = load i8, ptr %offset, align 1
  %conv15 = zext i8 %19 to i32
  %cmp16 = icmp eq i32 %conv15, 0
  br i1 %cmp16, label %if.then21, label %lor.lhs.false

lor.lhs.false:                                    ; preds = %sw.bb12
  %20 = load i8, ptr %offset, align 1
  %conv18 = zext i8 %20 to i32
  %cmp19 = icmp eq i32 %conv18, 2
  br i1 %cmp19, label %if.then21, label %if.end41

if.then21:                                        ; preds = %lor.lhs.false, %sw.bb12
  %21 = load i8, ptr %offset, align 1
  %conv22 = zext i8 %21 to i32
  %div = sdiv i32 %conv22, 2
  store i32 %div, ptr %intno, align 4
  %22 = load ptr, ptr %s, align 8
  %status = getelementptr inbounds %struct.TPCI200State, ptr %22, i32 0, i32 10
  %23 = load i16, ptr %status, align 8
  %conv23 = zext i16 %23 to i64
  %24 = load i32, ptr %ip_n, align 4
  %mul = mul i32 %24, 2
  %25 = load i32, ptr %intno, align 4
  %add = add i32 %mul, %25
  %sh_prom = zext i32 %add to i64
  %shl = shl i64 1, %sh_prom
  %and24 = and i64 %conv23, %shl
  %tobool25 = icmp ne i64 %and24, 0
  %frombool = zext i1 %tobool25 to i8
  store i8 %frombool, ptr %int_set, align 1
  %26 = load ptr, ptr %s, align 8
  %ctrl = getelementptr inbounds %struct.TPCI200State, ptr %26, i32 0, i32 9
  %27 = load i32, ptr %ip_n, align 4
  %idxprom = zext i32 %27 to i64
  %arrayidx26 = getelementptr [4 x i8], ptr %ctrl, i64 0, i64 %idxprom
  %28 = load i8, ptr %arrayidx26, align 1
  %conv27 = zext i8 %28 to i64
  %29 = load i32, ptr %intno, align 4
  %add28 = add i32 4, %29
  %sh_prom29 = zext i32 %add28 to i64
  %shl30 = shl i64 1, %sh_prom29
  %and31 = and i64 %conv27, %shl30
  %tobool32 = icmp ne i64 %and31, 0
  %frombool33 = zext i1 %tobool32 to i8
  store i8 %frombool33, ptr %int_edge_sensitive, align 1
  %30 = load i8, ptr %int_set, align 1
  %tobool34 = trunc i8 %30 to i1
  br i1 %tobool34, label %land.lhs.true, label %if.end40

land.lhs.true:                                    ; preds = %if.then21
  %31 = load i8, ptr %int_edge_sensitive, align 1
  %tobool36 = trunc i8 %31 to i1
  br i1 %tobool36, label %if.end40, label %if.then37

if.then37:                                        ; preds = %land.lhs.true
  %32 = load ptr, ptr %ip, align 8
  %irq = getelementptr inbounds %struct.IPackDevice, ptr %32, i32 0, i32 2
  %33 = load ptr, ptr %irq, align 8
  %34 = load i32, ptr %intno, align 4
  %idxprom38 = zext i32 %34 to i64
  %arrayidx39 = getelementptr ptr, ptr %33, i64 %idxprom38
  %35 = load ptr, ptr %arrayidx39, align 8
  call void @qemu_irq_lower(ptr noundef %35)
  br label %if.end40

if.end40:                                         ; preds = %if.then37, %land.lhs.true, %if.then21
  br label %if.end41

if.end41:                                         ; preds = %if.end40, %lor.lhs.false
  %36 = load ptr, ptr %k, align 8
  %int_read = getelementptr inbounds %struct.IPackDeviceClass, ptr %36, i32 0, i32 7
  %37 = load ptr, ptr %int_read, align 8
  %tobool42 = icmp ne ptr %37, null
  br i1 %tobool42, label %if.then43, label %if.end47

if.then43:                                        ; preds = %if.end41
  %38 = load ptr, ptr %k, align 8
  %int_read44 = getelementptr inbounds %struct.IPackDeviceClass, ptr %38, i32 0, i32 7
  %39 = load ptr, ptr %int_read44, align 8
  %40 = load ptr, ptr %ip, align 8
  %41 = load i8, ptr %offset, align 1
  %call45 = call zeroext i16 %39(ptr noundef %40, i8 noundef zeroext %41)
  %conv46 = zext i16 %call45 to i64
  store i64 %conv46, ptr %ret, align 8
  br label %if.end47

if.end47:                                         ; preds = %if.then43, %if.end41
  br label %sw.epilog

sw.default:                                       ; preds = %if.else
  %42 = load i64, ptr %addr.addr, align 8
  %and48 = and i64 %42, 127
  %conv49 = trunc i64 %and48 to i8
  store i8 %conv49, ptr %offset, align 1
  %43 = load ptr, ptr %k, align 8
  %io_read = getelementptr inbounds %struct.IPackDeviceClass, ptr %43, i32 0, i32 3
  %44 = load ptr, ptr %io_read, align 8
  %tobool50 = icmp ne ptr %44, null
  br i1 %tobool50, label %if.then51, label %if.end55

if.then51:                                        ; preds = %sw.default
  %45 = load ptr, ptr %k, align 8
  %io_read52 = getelementptr inbounds %struct.IPackDeviceClass, ptr %45, i32 0, i32 3
  %46 = load ptr, ptr %io_read52, align 8
  %47 = load ptr, ptr %ip, align 8
  %48 = load i8, ptr %offset, align 1
  %call53 = call zeroext i16 %46(ptr noundef %47, i8 noundef zeroext %48)
  %conv54 = zext i16 %call53 to i64
  store i64 %conv54, ptr %ret, align 8
  br label %if.end55

if.end55:                                         ; preds = %if.then51, %sw.default
  br label %sw.epilog

sw.epilog:                                        ; preds = %if.end55, %if.end47, %if.end
  br label %if.end56

if.end56:                                         ; preds = %sw.epilog, %do.end
  %49 = load ptr, ptr %s, align 8
  %big_endian57 = getelementptr inbounds %struct.TPCI200State, ptr %49, i32 0, i32 8
  %arrayidx58 = getelementptr [3 x i8], ptr %big_endian57, i64 0, i64 1
  %50 = load i8, ptr %arrayidx58, align 1
  %tobool59 = trunc i8 %50 to i1
  %51 = load i32, ptr %size.addr, align 4
  %call60 = call i64 @adjust_value(i1 noundef zeroext %tobool59, ptr noundef %ret, i32 noundef %51)
  ret i64 %call60
}