; Function Attrs: nounwind sspstrong uwtable
define internal range(i64 0, 65536) i64 @tpci200_read_las1(ptr noundef %opaque, i64 noundef %addr, i32 noundef %size) #0 {
entry:
  %arrayidx = getelementptr i8, ptr %opaque, i64 4385
  %0 = load i8, ptr %arrayidx, align 1
  %tobool = trunc i8 %0 to i1
  %cmp.i = icmp eq i32 %size, 1
  %or.cond.i = and i1 %cmp.i, %tobool
  %xor.i = zext i1 %or.cond.i to i64
  %spec.select = xor i64 %addr, %xor.i
  %shr = lshr i64 %addr, 8
  %conv = trunc i64 %shr to i32
  %bus = getelementptr inbounds nuw i8, ptr %opaque, i64 2608
  %call = tail call ptr @ipack_device_find(ptr noundef nonnull %bus, i32 noundef %conv) #6
  %cmp = icmp eq ptr %call, null
  br i1 %cmp, label %if.end56, label %if.else

if.else:                                          ; preds = %entry
  %1 = trunc i64 %addr to i32
  %2 = lshr i32 %1, 6
  %conv2 = and i32 %2, 3
  %call.i = tail call ptr @object_get_class(ptr noundef nonnull %call) #6
  %call1.i = tail call ptr @object_class_dynamic_cast_assert(ptr noundef %call.i, ptr noundef nonnull @.str.14, ptr noundef nonnull @.str.15, i32 noundef 34, ptr noundef nonnull @__func__.IPACK_DEVICE_GET_CLASS) #6
  switch i32 %conv2, label %sw.default [
    i32 2, label %sw.bb
    i32 3, label %sw.bb12
  ]

sw.bb:                                            ; preds = %if.else
  %id_read = getelementptr inbounds nuw i8, ptr %call1.i, i64 208
  %3 = load ptr, ptr %id_read, align 8
  %tobool7.not = icmp eq ptr %3, null
  br i1 %tobool7.not, label %if.end56, label %if.then8

if.then8:                                         ; preds = %sw.bb
  %4 = trunc i64 %spec.select to i8
  %conv6 = and i8 %4, 63
  %call10 = tail call zeroext i16 %3(ptr noundef nonnull %call, i8 noundef zeroext %conv6) #6
  br label %if.end56

sw.bb12:                                          ; preds = %if.else
  %5 = trunc i64 %spec.select to i8
  %conv14 = and i8 %5, 63
  %6 = and i8 %5, 61
  %or.cond = icmp eq i8 %6, 0
  br i1 %or.cond, label %if.then21, label %if.end41

if.then21:                                        ; preds = %sw.bb12
  %7 = lshr exact i8 %conv14, 1
  %div = zext nneg i8 %7 to i32
  %status = getelementptr inbounds nuw i8, ptr %opaque, i64 4392
  %8 = load i16, ptr %status, align 8
  %conv23 = zext i16 %8 to i64
  %mul = shl i32 %conv, 1
  %add = or disjoint i32 %mul, %div
  %sh_prom = zext nneg i32 %add to i64
  %shl = shl nuw i64 1, %sh_prom
  %and24 = and i64 %shl, %conv23
  %tobool25.not = icmp eq i64 %and24, 0
  br i1 %tobool25.not, label %if.end41, label %land.lhs.true

land.lhs.true:                                    ; preds = %if.then21
  %add28 = or disjoint i32 %div, 4
  %sh_prom29 = zext nneg i32 %add28 to i64
  %shl30 = shl nuw nsw i64 1, %sh_prom29
  %ctrl = getelementptr inbounds nuw i8, ptr %opaque, i64 4387
  %idxprom = and i64 %shr, 4294967295
  %arrayidx26 = getelementptr [4 x i8], ptr %ctrl, i64 0, i64 %idxprom
  %9 = load i8, ptr %arrayidx26, align 1
  %conv27 = zext i8 %9 to i64
  %and31 = and i64 %shl30, %conv27
  %tobool32.not = icmp eq i64 %and31, 0
  br i1 %tobool32.not, label %if.then37, label %if.end41

if.then37:                                        ; preds = %land.lhs.true
  %irq = getelementptr inbounds nuw i8, ptr %call, i64 168
  %10 = load ptr, ptr %irq, align 8
  %idxprom38 = zext nneg i8 %7 to i64
  %arrayidx39 = getelementptr ptr, ptr %10, i64 %idxprom38
  %11 = load ptr, ptr %arrayidx39, align 8
  tail call void @qemu_set_irq(ptr noundef %11, i32 noundef 0) #6
  br label %if.end41

if.end41:                                         ; preds = %if.then21, %land.lhs.true, %if.then37, %sw.bb12
  %int_read = getelementptr inbounds nuw i8, ptr %call1.i, i64 224
  %12 = load ptr, ptr %int_read, align 8
  %tobool42.not = icmp eq ptr %12, null
  br i1 %tobool42.not, label %if.end56, label %if.then43

if.then43:                                        ; preds = %if.end41
  %call45 = tail call zeroext i16 %12(ptr noundef nonnull %call, i8 noundef zeroext %conv14) #6
  br label %if.end56

sw.default:                                       ; preds = %if.else
  %io_read = getelementptr inbounds nuw i8, ptr %call1.i, i64 192
  %13 = load ptr, ptr %io_read, align 8
  %tobool50.not = icmp eq ptr %13, null
  br i1 %tobool50.not, label %if.end56, label %if.then51

if.then51:                                        ; preds = %sw.default
  %14 = trunc i64 %spec.select to i8
  %conv49 = and i8 %14, 127
  %call53 = tail call zeroext i16 %13(ptr noundef nonnull %call, i8 noundef zeroext %conv49) #6
  br label %if.end56

if.end56:                                         ; preds = %if.then8, %sw.bb, %if.then43, %if.end41, %if.then51, %sw.default, %entry
  %ret.0.shrunk = phi i16 [ 0, %entry ], [ 0, %sw.default ], [ %call53, %if.then51 ], [ 0, %if.end41 ], [ %call45, %if.then43 ], [ 0, %sw.bb ], [ %call10, %if.then8 ]
  %15 = load i8, ptr %arrayidx, align 1
  %tobool59 = trunc i8 %15 to i1
  %cmp.i27 = icmp eq i32 %size, 2
  %or.cond.i28 = and i1 %cmp.i27, %tobool59
  %16 = tail call i16 @llvm.bswap.i16(i16 %ret.0.shrunk)
  %.v = select i1 %or.cond.i28, i16 %16, i16 %ret.0.shrunk
  %17 = zext i16 %.v to i64
  ret i64 %17
}